target datalayout = "e-m:e-p270:32:32-p271:32:32-p272:64:64-i64:64-i128:128-f80:128-n8:16:32:64-S128"
target triple = "x86_64-unknown-linux-gnu"

%struct.CommandLineOptions = type { i32, i32, i32, i32, i32, i32, i32, i32, i32, i32, %struct.anon, %struct.anon.0, i32, ptr }
%struct.anon = type { ptr, i32, i32 }
%struct.anon.0 = type { %struct.anon.1, ptr, i32, i32 }
%struct.anon.1 = type { i32, i32, i32, i32 }

; Function Attrs: nounwind sspstrong uwtable
define dso_local void @init_options(ptr noundef %options) #0 {
entry:
  %options.addr = alloca ptr, align 8
  store ptr %options, ptr %options.addr, align 8
  %0 = load ptr, ptr %options.addr, align 8
  %preserve_modtime = getelementptr inbounds %struct.CommandLineOptions, ptr %0, i32 0, i32 0
  store i32 0, ptr %preserve_modtime, align 8
  %1 = load ptr, ptr %options.addr, align 8
  %prefix_with_filename = getelementptr inbounds %struct.CommandLineOptions, ptr %1, i32 0, i32 1
  store i32 2, ptr %prefix_with_filename, align 4
  %2 = load ptr, ptr %options.addr, align 8
  %utf8_convert = getelementptr inbounds %struct.CommandLineOptions, ptr %2, i32 0, i32 2
  store i32 1, ptr %utf8_convert, align 8
  %3 = load ptr, ptr %options.addr, align 8
  %use_padding = getelementptr inbounds %struct.CommandLineOptions, ptr %3, i32 0, i32 3
  store i32 1, ptr %use_padding, align 4
  %4 = load ptr, ptr %options.addr, align 8
  %cued_seekpoints = getelementptr inbounds %struct.CommandLineOptions, ptr %4, i32 0, i32 4
  store i32 1, ptr %cued_seekpoints, align 8
  %5 = load ptr, ptr %options.addr, align 8
  %show_long_help = getelementptr inbounds %struct.CommandLineOptions, ptr %5, i32 0, i32 5
  store i32 0, ptr %show_long_help, align 4
  %6 = load ptr, ptr %options.addr, align 8
  %show_version = getelementptr inbounds %struct.CommandLineOptions, ptr %6, i32 0, i32 6
  store i32 0, ptr %show_version, align 8
  %7 = load ptr, ptr %options.addr, align 8
  %data_format_is_binary = getelementptr inbounds %struct.CommandLineOptions, ptr %7, i32 0, i32 7
  store i32 0, ptr %data_format_is_binary, align 4
  %8 = load ptr, ptr %options.addr, align 8
  %data_format_is_binary_headerless = getelementptr inbounds %struct.CommandLineOptions, ptr %8, i32 0, i32 8
  store i32 0, ptr %data_format_is_binary_headerless, align 8
  %9 = load ptr, ptr %options.addr, align 8
  %application_data_format_is_hexdump = getelementptr inbounds %struct.CommandLineOptions, ptr %9, i32 0, i32 9
  store i32 0, ptr %application_data_format_is_hexdump, align 4
  %10 = load ptr, ptr %options.addr, align 8
  %ops = getelementptr inbounds %struct.CommandLineOptions, ptr %10, i32 0, i32 10
  %operations = getelementptr inbounds %struct.anon, ptr %ops, i32 0, i32 0
  store ptr null, ptr %operations, align 8
  %11 = load ptr, ptr %options.addr, align 8
  %ops1 = getelementptr inbounds %struct.CommandLineOptions, ptr %11, i32 0, i32 10
  %num_operations = getelementptr inbounds %struct.anon, ptr %ops1, i32 0, i32 1
  store i32 0, ptr %num_operations, align 8
  %12 = load ptr, ptr %options.addr, align 8
  %ops2 = getelementptr inbounds %struct.CommandLineOptions, ptr %12, i32 0, i32 10
  %capacity = getelementptr inbounds %struct.anon, ptr %ops2, i32 0, i32 2
  store i32 0, ptr %capacity, align 4
  %13 = load ptr, ptr %options.addr, align 8
  %args = getelementptr inbounds %struct.CommandLineOptions, ptr %13, i32 0, i32 11
  %arguments = getelementptr inbounds %struct.anon.0, ptr %args, i32 0, i32 1
  store ptr null, ptr %arguments, align 8
  %14 = load ptr, ptr %options.addr, align 8
  %args3 = getelementptr inbounds %struct.CommandLineOptions, ptr %14, i32 0, i32 11
  %num_arguments = getelementptr inbounds %struct.anon.0, ptr %args3, i32 0, i32 2
  store i32 0, ptr %num_arguments, align 8
  %15 = load ptr, ptr %options.addr, align 8
  %args4 = getelementptr inbounds %struct.CommandLineOptions, ptr %15, i32 0, i32 11
  %capacity5 = getelementptr inbounds %struct.anon.0, ptr %args4, i32 0, i32 3
  store i32 0, ptr %capacity5, align 4
  %16 = load ptr, ptr %options.addr, align 8
  %args6 = getelementptr inbounds %struct.CommandLineOptions, ptr %16, i32 0, i32 11
  %checks = getelementptr inbounds %struct.anon.0, ptr %args6, i32 0, i32 0
  %num_shorthand_ops = getelementptr inbounds %struct.anon.1, ptr %checks, i32 0, i32 0
  store i32 0, ptr %num_shorthand_ops, align 8
  %17 = load ptr, ptr %options.addr, align 8
  %args7 = getelementptr inbounds %struct.CommandLineOptions, ptr %17, i32 0, i32 11
  %checks8 = getelementptr inbounds %struct.anon.0, ptr %args7, i32 0, i32 0
  %num_major_ops = getelementptr inbounds %struct.anon.1, ptr %checks8, i32 0, i32 1
  store i32 0, ptr %num_major_ops, align 4
  %18 = load ptr, ptr %options.addr, align 8
  %args9 = getelementptr inbounds %struct.CommandLineOptions, ptr %18, i32 0, i32 11
  %checks10 = getelementptr inbounds %struct.anon.0, ptr %args9, i32 0, i32 0
  %has_block_type = getelementptr inbounds %struct.anon.1, ptr %checks10, i32 0, i32 2
  store i32 0, ptr %has_block_type, align 8
  %19 = load ptr, ptr %options.addr, align 8
  %args11 = getelementptr inbounds %struct.CommandLineOptions, ptr %19, i32 0, i32 11
  %checks12 = getelementptr inbounds %struct.anon.0, ptr %args11, i32 0, i32 0
  %has_except_block_type = getelementptr inbounds %struct.anon.1, ptr %checks12, i32 0, i32 3
  store i32 0, ptr %has_except_block_type, align 4
  %20 = load ptr, ptr %options.addr, align 8
  %num_files = getelementptr inbounds %struct.CommandLineOptions, ptr %20, i32 0, i32 12
  store i32 0, ptr %num_files, align 8
  %21 = load ptr, ptr %options.addr, align 8
  %filenames = getelementptr inbounds %struct.CommandLineOptions, ptr %21, i32 0, i32 13
  store ptr null, ptr %filenames, align 8
  ret void
}