; Function Attrs: mustprogress nofree norecurse nosync nounwind sspstrong willreturn memory(argmem: write) uwtable
define dso_local void @init_options(ptr noundef writeonly captures(none) initializes((0, 92), (96, 104)) %options) local_unnamed_addr #0 {
entry:
  store i32 0, ptr %options, align 8
  %prefix_with_filename = getelementptr inbounds nuw i8, ptr %options, i64 4
  store i32 2, ptr %prefix_with_filename, align 4
  %utf8_convert = getelementptr inbounds nuw i8, ptr %options, i64 8
  store i32 1, ptr %utf8_convert, align 8
  %use_padding = getelementptr inbounds nuw i8, ptr %options, i64 12
  store i32 1, ptr %use_padding, align 4
  %cued_seekpoints = getelementptr inbounds nuw i8, ptr %options, i64 16
  store i32 1, ptr %cued_seekpoints, align 8
  %show_long_help = getelementptr inbounds nuw i8, ptr %options, i64 20
  %filenames = getelementptr inbounds nuw i8, ptr %options, i64 96
  store ptr null, ptr %filenames, align 8
  tail call void @llvm.memset.p0.i64(ptr noundef nonnull align 4 dereferenceable(72) %show_long_help, i8 0, i64 72, i1 false)
  ret void
}